-----BEGIN ENCRYPTED PRIVATE KEY-----
MIIFHzBJBgkqhkiG9w0BBQ0wPDAbBgkqhkiG9w0BBQwwDgQIF0zLafza8YICAggA
MB0GCWCGSAFlAwQBKgQQ+c+wqHA6C6xTfr4TldQsQQSCBNCtHjAa07oFTg7pmYX+
+fHCdKDuO+Jxp1xEzsRpkSsTQlKIJm0AOo6X0Vlf7h5QtJl/q2hl/BIbcEQC3xnr
6tjqLapD1jdXUJ2+iVziWJw4qlIbBRlpxjW1xXUlzdbYaLSVEoXfdqgUaBUJ7T8H
PxBpcAOX0HJe4iO6u09Idx8GS5gscXzmlMXAxZxKhCd64LLaNcafCfnFj68VrZdr
u/S1VM5HTgvWHgzw+J+hk5DD+H3GJJr3cX+fwKqVWkjjviJDlmerOFoUnxAB8a8s
DaM/Xhkho0wj9A48vO3fp1evazURexX0BkbknnuQEuBR3eOKgL4rNeDjVkNSvYsb
EKVGNUBziQ0bl6eUEXCGgyzx0XzfJsG+5CI9AZN7ZCIWXMWwGlSQKIC8jmGigHwP
RyQISMgTWzrVEaHNZXwI9WI0nD9UXQ6Ud11dNNRpbg1L/TppXcu81TPAxIU1GMnU
UdL/Pf6MJSojo9f05n07Nc6FOqe5EZFGKS0ssizVxG4Xl+xmephxpEz2ZWIkPUCS
sbKRjwOdUHZ8lqgjptSWU0lTLCWBp0s6PNh6E0KaFs/+FFhNPmVY9Y6cb0EdFc02
n6CryZM8R0yQAyMWvXK3fyhLNfuKmxLWoHE3c1koZSpIHO5YYoTjviy/+XEWn8mk
Z5AzppTripIbBdicmIWI2VD3r4CmFD1Cx8ZVKSJNeKgxjt3bed6kutEnpIc2Oz4C
2XiQpvHHX1frwLCdKECeG7Sch97QAnTBSBPvAkrcVZxx6/xZ+pJq8ujTyISV403x
yPnQp9NH6vzgYLNuMm8qM8t9Hy85vWaElPlsNbUhtbliQIq7aS+mKcML/4c3aSWw
9QzeBxrIZAaAM2Ux/GJItOzIuJpllIq5XLm862fHL//wWkX3N7ISvHRRCwTxoyfp
IHtqv/npFfkaSDTj3b58Uf4cVnEHTeecNlsX2Yn/O3MzDmu+5FmCcFqqYDrIJb5n
0sVrBoaeKHUPHncModMFC67+hQsbqb827ZaMsj3vfZJMMY6jJI1SS6Nf6HuDmhmo
bRQLdE7lp4frByrLv6B7v/g5G9VzIloE2UMWwR4UNhd0Opez+zMLjtyKdsv6D2DR
a53pyrh/Tbk4FwGsV9Al16yIQZRXKcs/G+uJnavQeNT8vn+5aTAgp64sVV5KyTne
NY6aIDzGp4h5U8ZiwocDi28xJyEMJXwuiWhnOOttBtlxbAz74QzA7IFENHg/RbEh
jxPwNc2VUqlkNmYQdc2gqetmd89oEG6W22voqaeHS35W80WiHKw3cmCeQi/y+SDv
9i9ZbZ+AHBcDau31nbbm3ISq+k3Hd37Ks8Q0nusdcLZvQaPAPm7Sr4Q11JltvGLw
uDwcPoSzdWdXuMU2t333e2KyPUqB0eAbNUmSN4Kl7tYDvw0sm0DfyNm7cj9XwISA
Cu3USWcWzBjE8QFZ65m2TkVYfK1x9/8fHFHYXs57Gh/bGXgWT4LVzHp8J89eZirq
OY/Qw2qrhPl+CZjzl5sMecEdhfI1nIMt0NGtxeU1i+CAjZUwFoo8LhxkY9HFh94j
+H8ye/a5jd6vEcAzTdcwP2Fjs6M3C1oYbrvpdalOwtaDKQ0pHgpeFUEQHjRBD/87
kf+gfcosUf/KkeqBtkHnABQLLw==
-----END ENCRYPTED PRIVATE KEY-----
Certificate:
    Data:
        Version: 3 (0x2)
        Serial Number: 1 (0x1)
    Signature Algorithm: sha1WithRSAEncryption
        Issuer: DC=org, DC=simple, O=Simple Inc, OU=Simple Signing CA, CN=Simple Signing CA
        Validity
            Not Before: Oct 25 19:50:26 2020 GMT
            Not After : Oct 25 19:50:26 2022 GMT
        Subject: DC=org, DC=simple, O=Simple Inc, CN=Fred Flintstone
        Subject Public Key Info:
            Public Key Algorithm: rsaEncryption
                Public-Key: (2048 bit)
                Modulus:
                    00:cc:6b:c6:54:7f:f7:f6:82:b2:f7:bd:fb:2a:ee:
                    1f:69:bd:5c:45:5f:2e:69:8a:23:03:18:31:ed:98:
                    e0:d3:10:ed:2c:63:67:7b:3d:95:16:a2:86:a7:81:
                    d5:4d:a7:9c:e0:89:7a:76:91:d6:fa:1c:75:02:5e:
                    b8:35:c8:ef:a5:57:d8:d7:c5:d9:14:12:e1:87:46:
                    b2:c9:28:a3:45:39:2a:cb:b6:ad:64:60:e2:0e:89:
                    77:6c:df:c4:a0:77:bc:2b:68:e9:79:2d:88:d2:c1:
                    6a:46:bc:51:7b:44:1d:e6:13:4f:98:90:57:82:ad:
                    ff:13:45:85:55:4f:56:c2:3b:eb:3c:ec:f3:e8:3f:
                    fc:4c:97:a9:ee:3c:4e:a9:fa:2d:2e:a9:ff:26:02:
                    2d:36:2b:2d:42:e7:1e:a6:e0:9f:2d:62:01:7b:33:
                    72:41:1a:0a:fc:48:31:3e:e6:65:49:6e:f7:49:bf:
                    b4:42:e8:7e:1e:16:14:fe:6e:84:a0:38:43:2e:ef:
                    d6:5a:31:be:68:5e:29:37:14:ba:90:32:fc:a4:d9:
                    47:87:25:03:2d:d8:11:ef:01:e2:d4:6d:bf:ef:32:
                    c7:8b:d6:b0:9a:40:46:99:92:b8:0c:cf:4a:aa:4b:
                    94:61:d0:7e:1a:fb:a8:69:e9:4a:a2:f2:3f:76:3b:
                    c7:29
                Exponent: 65537 (0x10001)
        X509v3 extensions:
            X509v3 Key Usage: critical
                Digital Signature, Key Encipherment
            X509v3 Basic Constraints: 
                CA:FALSE
            X509v3 Extended Key Usage: 
                E-mail Protection, TLS Web Client Authentication
            X509v3 Subject Key Identifier: 
                B9:93:9A:C0:19:F3:65:D4:D4:E8:B4:17:1A:78:B8:44:9A:BA:20:C7
            X509v3 Authority Key Identifier: 
                keyid:10:90:4C:65:9A:D9:88:A9:E7:73:E1:0C:28:7C:AB:76:72:FF:8C:92

            X509v3 Subject Alternative Name: 
                email:fred@simple.org
    Signature Algorithm: sha1WithRSAEncryption
         69:4c:61:97:da:6e:24:02:2b:e6:42:29:98:de:c2:19:da:fe:
         e1:8d:09:03:6d:2e:02:50:f2:c1:55:ef:23:b2:b0:d2:b8:ac:
         f1:b5:01:16:09:b4:89:f2:6f:65:61:f2:57:4e:d9:28:78:62:
         4f:be:fd:c4:90:65:dd:41:7c:98:83:8a:a5:58:51:01:64:5d:
         f2:cd:17:77:0f:99:22:69:c7:a8:9c:06:ed:d4:87:ef:4a:d8:
         47:98:34:e2:bd:9a:0c:6f:ba:ae:d5:a6:c6:d5:14:23:1d:dc:
         65:3b:80:45:6d:35:19:61:c0:a7:d4:df:ce:35:d8:98:5b:4e:
         1a:49:01:30:d9:d3:64:f5:4d:0e:ca:91:44:fd:c4:62:f8:bd:
         40:c1:b5:c5:23:78:3d:a3:1c:1a:31:e5:ca:02:da:97:7d:2a:
         38:31:91:ae:2a:1b:d5:6d:e2:91:e8:6f:61:9b:e2:78:99:f1:
         8d:c7:48:87:26:02:7f:52:d2:f9:ed:1e:c1:52:11:d7:6d:c5:
         eb:61:70:2e:5c:2c:c7:b1:38:63:75:96:c7:8b:e8:28:30:fe:
         61:12:65:73:b0:9e:68:5a:f7:f2:b1:d7:24:d3:30:7d:3e:e4:
         88:b8:32:d6:2c:39:4f:64:b3:2e:6b:b9:71:5d:40:e7:22:ae:
         f7:7f:aa:f9
-----BEGIN CERTIFICATE-----
MIID6zCCAtOgAwIBAgIBATANBgkqhkiG9w0BAQUFADB6MRMwEQYKCZImiZPyLGQB
GRYDb3JnMRYwFAYKCZImiZPyLGQBGRYGc2ltcGxlMRMwEQYDVQQKDApTaW1wbGUg
SW5jMRowGAYDVQQLDBFTaW1wbGUgU2lnbmluZyBDQTEaMBgGA1UEAwwRU2ltcGxl
IFNpZ25pbmcgQ0EwHhcNMjAxMDI1MTk1MDI2WhcNMjIxMDI1MTk1MDI2WjBcMRMw
EQYKCZImiZPyLGQBGRYDb3JnMRYwFAYKCZImiZPyLGQBGRYGc2ltcGxlMRMwEQYD
VQQKDApTaW1wbGUgSW5jMRgwFgYDVQQDDA9GcmVkIEZsaW50c3RvbmUwggEiMA0G
CSqGSIb3DQEBAQUAA4IBDwAwggEKAoIBAQDMa8ZUf/f2grL3vfsq7h9pvVxFXy5p
iiMDGDHtmODTEO0sY2d7PZUWooangdVNp5zgiXp2kdb6HHUCXrg1yO+lV9jXxdkU
EuGHRrLJKKNFOSrLtq1kYOIOiXds38Sgd7wraOl5LYjSwWpGvFF7RB3mE0+YkFeC
rf8TRYVVT1bCO+s87PPoP/xMl6nuPE6p+i0uqf8mAi02Ky1C5x6m4J8tYgF7M3JB
Ggr8SDE+5mVJbvdJv7RC6H4eFhT+boSgOEMu79ZaMb5oXik3FLqQMvyk2UeHJQMt
2BHvAeLUbb/vMseL1rCaQEaZkrgMz0qqS5Rh0H4a+6hp6Uqi8j92O8cpAgMBAAGj
gZkwgZYwDgYDVR0PAQH/BAQDAgWgMAkGA1UdEwQCMAAwHQYDVR0lBBYwFAYIKwYB
BQUHAwQGCCsGAQUFBwMCMB0GA1UdDgQWBBS5k5rAGfNl1NTotBcaeLhEmrogxzAf
BgNVHSMEGDAWgBQQkExlmtmIqedz4QwofKt2cv+MkjAaBgNVHREEEzARgQ9mcmVk
QHNpbXBsZS5vcmcwDQYJKoZIhvcNAQEFBQADggEBAGlMYZfabiQCK+ZCKZjewhna
/uGNCQNtLgJQ8sFV7yOysNK4rPG1ARYJtInyb2Vh8ldO2Sh4Yk++/cSQZd1BfJiD
iqVYUQFkXfLNF3cPmSJpx6icBu3Uh+9K2EeYNOK9mgxvuq7VpsbVFCMd3GU7gEVt
NRlhwKfU38412JhbThpJATDZ02T1TQ7KkUT9xGL4vUDBtcUjeD2jHBox5coC2pd9
Kjgxka4qG9Vt4pHob2Gb4niZ8Y3HSIcmAn9S0vntHsFSEddtxethcC5cLMexOGN1
lseL6Cgw/mESZXOwnmha9/Kx1yTTMH0+5Ii4MtYsOU9ksy5ruXFdQOcirvd/qvk=
-----END CERTIFICATE-----
