Certificate:
    Data:
        Version: 3 (0x2)
        Serial Number: 2 (0x2)
    Signature Algorithm: sha1WithRSAEncryption
        Issuer: DC=org, DC=simple, O=Simple Inc, OU=Simple Signing CA, CN=Simple Signing CA
        Validity
            Not Before: Oct 25 19:51:20 2020 GMT
            Not After : Oct 25 19:51:20 2022 GMT
        Subject: DC=org, DC=simple, O=Simple Inc, CN=www.simple.org
        Subject Public Key Info:
            Public Key Algorithm: rsaEncryption
                Public-Key: (2048 bit)
                Modulus:
                    00:ba:7d:84:a4:63:4a:3f:c6:bf:3a:0c:e4:2a:3e:
                    af:d8:e1:d0:64:c4:d8:97:d2:a1:71:e1:6f:2b:e6:
                    bc:f1:e7:5b:42:07:81:61:70:43:44:81:df:77:72:
                    4b:33:05:b1:d4:4d:3e:7d:f6:50:2c:4d:c9:5e:e6:
                    4c:59:52:74:07:fc:1f:d3:78:86:54:34:10:0c:35:
                    ae:b8:bb:da:aa:b3:bb:ce:c5:aa:52:6b:7e:64:6d:
                    83:0d:bb:5e:a6:38:3b:7c:58:6e:a1:30:f5:a6:7b:
                    0b:f7:ae:11:43:13:3f:da:c1:71:7e:97:c3:1f:a6:
                    7d:63:74:1b:89:2d:be:73:3c:ca:17:09:af:2f:67:
                    b2:0d:03:39:c5:9d:e5:5b:d6:bb:8f:16:cf:9c:06:
                    36:8c:da:af:b1:c1:8c:24:16:c7:ab:b7:0e:55:e7:
                    01:d7:50:d2:32:98:dc:4c:43:6f:e7:23:9d:12:7a:
                    68:9a:97:a2:21:1c:f6:52:42:3e:1d:78:31:a6:ea:
                    1c:70:a0:a3:43:a9:78:8e:95:9b:e6:53:8e:66:18:
                    2c:ce:58:1c:a9:e4:61:07:53:7a:a1:68:1c:ca:85:
                    ad:22:18:4c:84:8a:73:89:4d:e0:b7:08:50:a4:fe:
                    73:c4:7f:19:03:2f:74:da:92:27:8f:a2:b5:70:4e:
                    1b:8b
                Exponent: 65537 (0x10001)
        X509v3 extensions:
            X509v3 Key Usage: critical
                Digital Signature, Key Encipherment
            X509v3 Basic Constraints: 
                CA:FALSE
            X509v3 Extended Key Usage: 
                TLS Web Server Authentication, TLS Web Client Authentication
            X509v3 Subject Key Identifier: 
                89:D6:1B:BC:6C:3B:43:74:1E:B0:B5:AC:09:EF:FB:41:D9:AE:D8:E8
            X509v3 Authority Key Identifier: 
                keyid:10:90:4C:65:9A:D9:88:A9:E7:73:E1:0C:28:7C:AB:76:72:FF:8C:92

            X509v3 Subject Alternative Name: 
                DNS:yourdomain.tld
    Signature Algorithm: sha1WithRSAEncryption
         75:6e:4b:95:b2:b0:82:fa:5e:8a:21:1c:a0:4b:05:1b:7b:3c:
         23:55:72:0d:45:6d:1d:75:f6:66:98:0f:67:03:7c:94:17:b2:
         f2:d4:62:5c:cf:d3:67:ae:2d:55:78:bd:ea:06:98:3c:0f:fb:
         a6:85:c3:0d:b8:62:6e:b4:c3:f2:dc:5b:da:26:46:91:2a:bf:
         9f:93:72:e0:cf:d7:6c:fe:bf:84:69:8d:07:68:b2:53:f5:99:
         de:04:bd:99:16:57:fb:43:86:5b:10:9b:72:4e:aa:2b:45:41:
         aa:b3:9c:41:d6:d7:17:75:97:8e:f1:91:c6:55:5a:4d:17:c4:
         5a:f5:22:95:fc:60:b6:7d:e8:a4:91:cb:0f:99:32:85:62:e0:
         d3:36:52:c9:84:b7:48:61:20:75:6e:eb:11:db:4b:31:31:40:
         cb:3f:db:c0:26:c0:b0:3a:1a:9d:a5:fb:10:dc:6a:9d:fc:fa:
         2e:89:46:e5:6b:5b:fc:2a:0d:8d:6c:0e:16:27:11:f2:36:e6:
         0f:bc:fc:e4:23:bc:8f:e1:06:3e:1c:72:ad:63:35:6d:4e:f3:
         f2:53:cd:b6:96:fb:f6:2e:01:0e:49:32:81:ac:19:70:88:af:
         9c:8c:50:08:dc:05:d3:e2:90:4d:c7:4b:40:9b:22:54:ff:93:
         81:5f:1f:63
-----BEGIN CERTIFICATE-----
MIID6TCCAtGgAwIBAgIBAjANBgkqhkiG9w0BAQUFADB6MRMwEQYKCZImiZPyLGQB
GRYDb3JnMRYwFAYKCZImiZPyLGQBGRYGc2ltcGxlMRMwEQYDVQQKDApTaW1wbGUg
SW5jMRowGAYDVQQLDBFTaW1wbGUgU2lnbmluZyBDQTEaMBgGA1UEAwwRU2ltcGxl
IFNpZ25pbmcgQ0EwHhcNMjAxMDI1MTk1MTIwWhcNMjIxMDI1MTk1MTIwWjBbMRMw
EQYKCZImiZPyLGQBGRYDb3JnMRYwFAYKCZImiZPyLGQBGRYGc2ltcGxlMRMwEQYD
VQQKDApTaW1wbGUgSW5jMRcwFQYDVQQDDA53d3cuc2ltcGxlLm9yZzCCASIwDQYJ
KoZIhvcNAQEBBQADggEPADCCAQoCggEBALp9hKRjSj/GvzoM5Co+r9jh0GTE2JfS
oXHhbyvmvPHnW0IHgWFwQ0SB33dySzMFsdRNPn32UCxNyV7mTFlSdAf8H9N4hlQ0
EAw1rri72qqzu87FqlJrfmRtgw27XqY4O3xYbqEw9aZ7C/euEUMTP9rBcX6Xwx+m
fWN0G4ktvnM8yhcJry9nsg0DOcWd5VvWu48Wz5wGNozar7HBjCQWx6u3DlXnAddQ
0jKY3ExDb+cjnRJ6aJqXoiEc9lJCPh14MabqHHCgo0OpeI6Vm+ZTjmYYLM5YHKnk
YQdTeqFoHMqFrSIYTISKc4lN4LcIUKT+c8R/GQMvdNqSJ4+itXBOG4sCAwEAAaOB
mDCBlTAOBgNVHQ8BAf8EBAMCBaAwCQYDVR0TBAIwADAdBgNVHSUEFjAUBggrBgEF
BQcDAQYIKwYBBQUHAwIwHQYDVR0OBBYEFInWG7xsO0N0HrC1rAnv+0HZrtjoMB8G
A1UdIwQYMBaAFBCQTGWa2Yip53PhDCh8q3Zy/4ySMBkGA1UdEQQSMBCCDnlvdXJk
b21haW4udGxkMA0GCSqGSIb3DQEBBQUAA4IBAQB1bkuVsrCC+l6KIRygSwUbezwj
VXINRW0ddfZmmA9nA3yUF7Ly1GJcz9Nnri1VeL3qBpg8D/umhcMNuGJutMPy3Fva
JkaRKr+fk3Lgz9ds/r+EaY0HaLJT9ZneBL2ZFlf7Q4ZbEJtyTqorRUGqs5xB1tcX
dZeO8ZHGVVpNF8Ra9SKV/GC2feikkcsPmTKFYuDTNlLJhLdIYSB1busR20sxMUDL
P9vAJsCwOhqdpfsQ3Gqd/PouiUbla1v8Kg2NbA4WJxHyNuYPvPzkI7yP4QY+HHKt
YzVtTvPyU822lvv2LgEOSTKBrBlwiK+cjFAI3AXT4pBNx0tAmyJU/5OBXx9j
-----END CERTIFICATE-----
