Certificate:
    Data:
        Version: 3 (0x2)
        Serial Number: 1 (0x1)
    Signature Algorithm: sha1WithRSAEncryption
        Issuer: DC=org, DC=simple, O=Simple Inc, OU=Simple Root CA, CN=Simple Root CA
        Validity
            Not Before: Oct 25 19:47:46 2020 GMT
            Not After : Oct 25 19:47:46 2030 GMT
        Subject: DC=org, DC=simple, O=Simple Inc, OU=Simple Root CA, CN=Simple Root CA
        Subject Public Key Info:
            Public Key Algorithm: rsaEncryption
                Public-Key: (2048 bit)
                Modulus:
                    00:b3:57:6a:9b:de:a5:fd:9c:ca:ab:e4:49:4c:1f:
                    1a:44:6e:0f:8d:44:af:5a:c7:da:76:a2:1f:15:67:
                    f1:08:7e:c5:a3:e5:b0:59:5e:15:95:ef:94:3e:3e:
                    51:fc:79:94:ec:ed:50:6f:a8:8b:4e:27:32:5a:37:
                    51:85:c4:fa:61:d6:61:64:b7:11:cf:cb:37:06:77:
                    97:5a:fe:36:29:6e:24:61:11:13:88:13:f6:6c:04:
                    48:42:45:d6:e3:f7:4f:07:d3:de:f2:44:2d:ee:07:
                    6b:aa:0e:ba:e6:88:24:84:f5:23:20:74:20:8d:a3:
                    d2:05:93:91:2c:e6:f0:6d:4c:04:7e:e5:b0:cf:74:
                    de:67:8e:55:d7:b7:42:8a:f4:99:41:64:c5:08:7f:
                    a0:d4:12:22:14:ef:78:9d:c9:84:d5:7a:43:21:03:
                    55:0d:7f:ea:4a:83:10:3b:5f:96:74:c2:86:49:e3:
                    22:6e:c8:b7:bf:e4:97:b5:ef:d8:fb:f4:29:58:5b:
                    c4:0c:d6:20:c5:8a:1e:da:6e:46:03:22:00:89:23:
                    64:3d:8f:88:39:0c:12:2b:d6:ca:c0:02:e6:4e:a6:
                    4c:c1:78:88:d3:21:25:81:f2:52:e6:79:b5:b9:2c:
                    14:12:11:c4:4b:0c:b7:82:2d:e0:01:c1:88:b9:40:
                    bc:13
                Exponent: 65537 (0x10001)
        X509v3 extensions:
            X509v3 Key Usage: critical
                Certificate Sign, CRL Sign
            X509v3 Basic Constraints: critical
                CA:TRUE
            X509v3 Subject Key Identifier: 
                64:87:C9:EC:7D:07:15:29:34:95:5C:34:DA:E2:15:B1:F5:CC:57:9E
            X509v3 Authority Key Identifier: 
                keyid:64:87:C9:EC:7D:07:15:29:34:95:5C:34:DA:E2:15:B1:F5:CC:57:9E

    Signature Algorithm: sha1WithRSAEncryption
         0c:e3:94:99:4c:86:74:08:a7:c1:23:21:f4:d1:76:dc:cb:28:
         70:78:3e:9e:e0:e2:cd:b0:eb:a3:c8:22:bf:9a:aa:26:7a:fb:
         30:a0:c1:6b:22:25:c3:27:fe:dd:a4:17:c9:39:27:8d:c9:84:
         1b:a3:dc:a3:94:1b:14:c9:0f:7e:74:0d:d5:79:b0:29:30:b0:
         10:c4:01:68:92:79:d0:b2:26:c8:2a:e7:1a:61:0d:bd:7c:12:
         b4:a1:39:2b:db:24:fe:b5:c5:d3:e5:b0:23:08:08:6d:18:6f:
         35:ca:2e:78:20:c7:af:72:ae:f4:9a:cc:fe:f6:cb:e5:13:51:
         a5:19:53:b5:39:59:22:bb:c5:1e:ee:53:95:cb:fb:02:dc:d7:
         11:88:d9:00:25:35:1c:92:e0:2e:83:6e:9b:b2:9f:9b:52:f4:
         3d:b3:32:ed:1e:93:80:f0:68:0f:1a:67:e3:09:2f:be:1b:02:
         b5:dc:83:09:f3:cb:a6:00:82:60:de:92:49:a8:f1:a7:6d:60:
         66:22:aa:45:2f:f8:84:1d:26:39:e8:ac:50:73:ac:a3:8c:c8:
         3d:d9:35:6c:bc:c9:f8:3c:49:e1:07:48:8e:0d:32:22:02:88:
         81:45:67:53:04:35:db:08:72:a0:ad:9d:9c:b6:a8:e0:1c:7b:
         d1:3e:d4:50
-----BEGIN CERTIFICATE-----
MIIDxjCCAq6gAwIBAgIBATANBgkqhkiG9w0BAQUFADB0MRMwEQYKCZImiZPyLGQB
GRYDb3JnMRYwFAYKCZImiZPyLGQBGRYGc2ltcGxlMRMwEQYDVQQKDApTaW1wbGUg
SW5jMRcwFQYDVQQLDA5TaW1wbGUgUm9vdCBDQTEXMBUGA1UEAwwOU2ltcGxlIFJv
b3QgQ0EwHhcNMjAxMDI1MTk0NzQ2WhcNMzAxMDI1MTk0NzQ2WjB0MRMwEQYKCZIm
iZPyLGQBGRYDb3JnMRYwFAYKCZImiZPyLGQBGRYGc2ltcGxlMRMwEQYDVQQKDApT
aW1wbGUgSW5jMRcwFQYDVQQLDA5TaW1wbGUgUm9vdCBDQTEXMBUGA1UEAwwOU2lt
cGxlIFJvb3QgQ0EwggEiMA0GCSqGSIb3DQEBAQUAA4IBDwAwggEKAoIBAQCzV2qb
3qX9nMqr5ElMHxpEbg+NRK9ax9p2oh8VZ/EIfsWj5bBZXhWV75Q+PlH8eZTs7VBv
qItOJzJaN1GFxPph1mFktxHPyzcGd5da/jYpbiRhEROIE/ZsBEhCRdbj908H097y
RC3uB2uqDrrmiCSE9SMgdCCNo9IFk5Es5vBtTAR+5bDPdN5njlXXt0KK9JlBZMUI
f6DUEiIU73idyYTVekMhA1UNf+pKgxA7X5Z0woZJ4yJuyLe/5Je179j79ClYW8QM
1iDFih7abkYDIgCJI2Q9j4g5DBIr1srAAuZOpkzBeIjTISWB8lLmebW5LBQSEcRL
DLeCLeABwYi5QLwTAgMBAAGjYzBhMA4GA1UdDwEB/wQEAwIBBjAPBgNVHRMBAf8E
BTADAQH/MB0GA1UdDgQWBBRkh8nsfQcVKTSVXDTa4hWx9cxXnjAfBgNVHSMEGDAW
gBRkh8nsfQcVKTSVXDTa4hWx9cxXnjANBgkqhkiG9w0BAQUFAAOCAQEADOOUmUyG
dAinwSMh9NF23MsocHg+nuDizbDro8giv5qqJnr7MKDBayIlwyf+3aQXyTknjcmE
G6Pco5QbFMkPfnQN1XmwKTCwEMQBaJJ50LImyCrnGmENvXwStKE5K9sk/rXF0+Ww
IwgIbRhvNcoueCDHr3Ku9JrM/vbL5RNRpRlTtTlZIrvFHu5Tlcv7AtzXEYjZACU1
HJLgLoNum7Kfm1L0PbMy7R6TgPBoDxpn4wkvvhsCtdyDCfPLpgCCYN6SSajxp21g
ZiKqRS/4hB0mOeisUHOso4zIPdk1bLzJ+DxJ4QdIjg0yIgKIgUVnUwQ12whyoK2d
nLao4Bx70T7UUA==
-----END CERTIFICATE-----
