Certificate:
    Data:
        Version: 3 (0x2)
        Serial Number: 2 (0x2)
    Signature Algorithm: sha1WithRSAEncryption
        Issuer: DC=org, DC=simple, O=Simple Inc, OU=Simple Root CA, CN=Simple Root CA
        Validity
            Not Before: Oct 25 19:49:00 2020 GMT
            Not After : Oct 25 19:49:00 2030 GMT
        Subject: DC=org, DC=simple, O=Simple Inc, OU=Simple Signing CA, CN=Simple Signing CA
        Subject Public Key Info:
            Public Key Algorithm: rsaEncryption
                Public-Key: (2048 bit)
                Modulus:
                    00:db:97:19:5a:27:85:21:de:77:38:70:0e:d8:12:
                    32:e8:10:39:64:be:34:3d:8c:80:ea:cb:40:9d:31:
                    40:8e:a3:a6:04:ca:75:5a:ed:8f:93:8a:61:39:f4:
                    0e:f8:08:cd:34:57:8d:20:22:a0:10:b4:38:38:e1:
                    64:40:b8:1d:62:0b:f0:8b:b1:03:ed:c0:cb:86:6d:
                    f0:a2:37:91:74:12:70:55:9f:72:23:d7:41:97:55:
                    4f:4d:9c:37:77:2d:09:4b:5e:55:de:e1:58:6b:fc:
                    72:ef:71:1b:f9:ca:8b:e3:45:b7:3f:83:d3:22:54:
                    70:97:34:af:1a:bc:15:ae:8e:9f:d8:4e:82:83:c5:
                    58:d2:0a:ca:1f:14:c1:96:2e:b2:6b:d3:b1:4e:c0:
                    89:24:9d:f0:b2:a7:e9:b3:58:fe:e1:6d:4f:79:54:
                    66:a6:81:75:c4:13:aa:67:53:6a:ca:55:60:b7:0d:
                    53:47:7a:aa:ec:11:80:93:2b:9c:d8:79:5a:81:a8:
                    07:ea:50:be:3d:05:ff:1f:c1:c8:37:60:29:07:d5:
                    0a:cc:44:f6:ed:91:7b:5e:a5:c4:c1:b4:2e:5a:61:
                    c9:c5:e2:35:91:65:04:10:fa:ce:2f:10:b0:0e:1e:
                    b1:a0:f2:68:14:76:0f:c1:24:f0:c6:11:49:53:01:
                    eb:11
                Exponent: 65537 (0x10001)
        X509v3 extensions:
            X509v3 Key Usage: critical
                Certificate Sign, CRL Sign
            X509v3 Basic Constraints: critical
                CA:TRUE, pathlen:0
            X509v3 Subject Key Identifier: 
                10:90:4C:65:9A:D9:88:A9:E7:73:E1:0C:28:7C:AB:76:72:FF:8C:92
            X509v3 Authority Key Identifier: 
                keyid:64:87:C9:EC:7D:07:15:29:34:95:5C:34:DA:E2:15:B1:F5:CC:57:9E

    Signature Algorithm: sha1WithRSAEncryption
         20:e3:bf:95:da:0d:5b:d4:32:e3:ad:ad:fc:99:5b:30:36:8a:
         4b:a6:8b:6f:9f:9a:d9:1b:17:a8:11:f4:9d:2a:4d:e7:12:e3:
         68:ed:32:08:a8:dd:5c:0a:43:ad:a4:eb:db:86:00:d4:b7:d3:
         40:5c:ac:52:bf:fc:fd:ca:34:d0:2a:87:6e:78:00:2b:5e:a6:
         85:04:82:25:66:19:15:d5:a4:bc:1f:08:8b:8b:e2:b9:4e:cc:
         49:dd:e4:80:85:3f:09:56:0e:b1:5d:68:ce:f2:65:93:a7:c3:
         4d:8e:93:13:64:af:74:1d:c6:2a:34:ae:35:aa:78:bb:ae:cb:
         77:6b:67:0c:d4:2b:5a:97:ed:9c:5a:a7:f1:3e:9e:88:e5:af:
         30:51:29:23:0c:b2:e4:67:23:e9:a1:16:c8:8b:74:e8:9d:da:
         1b:f0:dd:72:dc:2c:f1:ef:50:97:9f:34:1e:4f:14:a7:b5:ff:
         6c:bf:ac:72:62:5f:04:ba:73:38:97:fa:c3:10:02:8c:d7:1c:
         d1:73:3b:65:f8:ab:a1:de:7b:7b:69:97:90:1b:1f:5d:79:46:
         05:2c:70:a5:81:a5:a4:59:61:ed:cd:0e:02:38:74:4f:64:5a:
         46:f6:7e:ad:1e:f9:e3:43:3f:dd:87:f7:19:18:e1:fe:55:2b:
         5f:4a:3e:ad
-----BEGIN CERTIFICATE-----
MIIDzzCCAregAwIBAgIBAjANBgkqhkiG9w0BAQUFADB0MRMwEQYKCZImiZPyLGQB
GRYDb3JnMRYwFAYKCZImiZPyLGQBGRYGc2ltcGxlMRMwEQYDVQQKDApTaW1wbGUg
SW5jMRcwFQYDVQQLDA5TaW1wbGUgUm9vdCBDQTEXMBUGA1UEAwwOU2ltcGxlIFJv
b3QgQ0EwHhcNMjAxMDI1MTk0OTAwWhcNMzAxMDI1MTk0OTAwWjB6MRMwEQYKCZIm
iZPyLGQBGRYDb3JnMRYwFAYKCZImiZPyLGQBGRYGc2ltcGxlMRMwEQYDVQQKDApT
aW1wbGUgSW5jMRowGAYDVQQLDBFTaW1wbGUgU2lnbmluZyBDQTEaMBgGA1UEAwwR
U2ltcGxlIFNpZ25pbmcgQ0EwggEiMA0GCSqGSIb3DQEBAQUAA4IBDwAwggEKAoIB
AQDblxlaJ4Uh3nc4cA7YEjLoEDlkvjQ9jIDqy0CdMUCOo6YEynVa7Y+TimE59A74
CM00V40gIqAQtDg44WRAuB1iC/CLsQPtwMuGbfCiN5F0EnBVn3Ij10GXVU9NnDd3
LQlLXlXe4Vhr/HLvcRv5yovjRbc/g9MiVHCXNK8avBWujp/YToKDxVjSCsofFMGW
LrJr07FOwIkknfCyp+mzWP7hbU95VGamgXXEE6pnU2rKVWC3DVNHeqrsEYCTK5zY
eVqBqAfqUL49Bf8fwcg3YCkH1QrMRPbtkXtepcTBtC5aYcnF4jWRZQQQ+s4vELAO
HrGg8mgUdg/BJPDGEUlTAesRAgMBAAGjZjBkMA4GA1UdDwEB/wQEAwIBBjASBgNV
HRMBAf8ECDAGAQH/AgEAMB0GA1UdDgQWBBQQkExlmtmIqedz4QwofKt2cv+MkjAf
BgNVHSMEGDAWgBRkh8nsfQcVKTSVXDTa4hWx9cxXnjANBgkqhkiG9w0BAQUFAAOC
AQEAIOO/ldoNW9Qy462t/JlbMDaKS6aLb5+a2RsXqBH0nSpN5xLjaO0yCKjdXApD
raTr24YA1LfTQFysUr/8/co00CqHbngAK16mhQSCJWYZFdWkvB8Ii4viuU7MSd3k
gIU/CVYOsV1ozvJlk6fDTY6TE2SvdB3GKjSuNap4u67Ld2tnDNQrWpftnFqn8T6e
iOWvMFEpIwyy5Gcj6aEWyIt06J3aG/Ddctws8e9Ql580Hk8Up7X/bL+scmJfBLpz
OJf6wxACjNcc0XM7Zfirod57e2mXkBsfXXlGBSxwpYGlpFlh7c0OAjh0T2RaRvZ+
rR7540M/3Yf3GRjh/lUrX0o+rQ==
-----END CERTIFICATE-----
